target datalayout = "e-m:e-p270:32:32-p271:32:32-p272:64:64-i64:64-i128:128-f80:128-n8:16:32:64-S128"
target triple = "x86_64-pc-linux-gnu"

%struct.ForEachState = type { ptr, i32 }
%struct.List = type { i32, i32, i32, ptr, [0 x %union.ListCell] }
%union.ListCell = type { ptr }
%struct.Expr = type { i32 }
%struct.TargetEntry = type { %struct.Expr, ptr, i16, ptr, i32, i32, i16, i8 }
%struct.SortGroupClause = type { i32, i32, i32, i32, i8, i8, i8 }

; Function Attrs: nounwind uwtable
define dso_local zeroext i1 @targetIsInSortList(ptr noundef %0, i32 noundef %1, ptr noundef %2) #0 {
  %4 = alloca i1, align 1
  %5 = alloca ptr, align 8
  %6 = alloca i32, align 4
  %7 = alloca ptr, align 8
  %8 = alloca i32, align 4
  %9 = alloca ptr, align 8
  %10 = alloca i32, align 4
  %11 = alloca %struct.ForEachState, align 8
  %12 = alloca ptr, align 8
  store ptr %0, ptr %5, align 8
  store i32 %1, ptr %6, align 4
  store ptr %2, ptr %7, align 8
  call void @llvm.lifetime.start.p0(i64 4, ptr %8) #8
  %13 = load ptr, ptr %5, align 8
  %14 = getelementptr inbounds nuw %struct.TargetEntry, ptr %13, i32 0, i32 4
  %15 = load i32, ptr %14, align 8
  store i32 %15, ptr %8, align 4
  call void @llvm.lifetime.start.p0(i64 8, ptr %9) #8
  %16 = load i32, ptr %8, align 4
  %17 = icmp eq i32 %16, 0
  br i1 %17, label %18, label %19

18:                                               ; preds = %3
  store i1 false, ptr %4, align 1
  store i32 1, ptr %10, align 4
  br label %86

19:                                               ; preds = %3
  call void @llvm.lifetime.start.p0(i64 16, ptr %11) #8
  %20 = getelementptr inbounds nuw %struct.ForEachState, ptr %11, i32 0, i32 0
  %21 = load ptr, ptr %7, align 8
  store ptr %21, ptr %20, align 8
  %22 = getelementptr inbounds nuw %struct.ForEachState, ptr %11, i32 0, i32 1
  store i32 0, ptr %22, align 8
  %23 = getelementptr i8, ptr %11, i64 12
  call void @llvm.memset.p0.i64(ptr align 4 %23, i8 0, i64 4, i1 false)
  br label %24

24:                                               ; preds = %79, %19
  %25 = getelementptr inbounds nuw %struct.ForEachState, ptr %11, i32 0, i32 0
  %26 = load ptr, ptr %25, align 8
  %27 = icmp ne ptr %26, null
  br i1 %27, label %28, label %45

28:                                               ; preds = %24
  %29 = getelementptr inbounds nuw %struct.ForEachState, ptr %11, i32 0, i32 1
  %30 = load i32, ptr %29, align 8
  %31 = getelementptr inbounds nuw %struct.ForEachState, ptr %11, i32 0, i32 0
  %32 = load ptr, ptr %31, align 8
  %33 = getelementptr inbounds nuw %struct.List, ptr %32, i32 0, i32 1
  %34 = load i32, ptr %33, align 4
  %35 = icmp slt i32 %30, %34
  br i1 %35, label %36, label %45

36:                                               ; preds = %28
  %37 = getelementptr inbounds nuw %struct.ForEachState, ptr %11, i32 0, i32 0
  %38 = load ptr, ptr %37, align 8
  %39 = getelementptr inbounds nuw %struct.List, ptr %38, i32 0, i32 3
  %40 = load ptr, ptr %39, align 8
  %41 = getelementptr inbounds nuw %struct.ForEachState, ptr %11, i32 0, i32 1
  %42 = load i32, ptr %41, align 8
  %43 = sext i32 %42 to i64
  %44 = getelementptr inbounds %union.ListCell, ptr %40, i64 %43
  store ptr %44, ptr %9, align 8
  br label %46

45:                                               ; preds = %28, %24
  store ptr null, ptr %9, align 8
  br label %46

46:                                               ; preds = %45, %36
  %47 = phi i32 [ 1, %36 ], [ 0, %45 ]
  %48 = icmp ne i32 %47, 0
  br i1 %48, label %50, label %49

49:                                               ; preds = %46
  store i32 2, ptr %10, align 4
  br label %83

50:                                               ; preds = %46
  call void @llvm.lifetime.start.p0(i64 8, ptr %12) #8
  %51 = load ptr, ptr %9, align 8
  %52 = load ptr, ptr %51, align 8
  store ptr %52, ptr %12, align 8
  %53 = load ptr, ptr %12, align 8
  %54 = getelementptr inbounds nuw %struct.SortGroupClause, ptr %53, i32 0, i32 1
  %55 = load i32, ptr %54, align 4
  %56 = load i32, ptr %8, align 4
  %57 = icmp eq i32 %55, %56
  br i1 %57, label %58, label %75

58:                                               ; preds = %50
  %59 = load i32, ptr %6, align 4
  %60 = icmp eq i32 %59, 0
  br i1 %60, label %74, label %61

61:                                               ; preds = %58
  %62 = load i32, ptr %6, align 4
  %63 = load ptr, ptr %12, align 8
  %64 = getelementptr inbounds nuw %struct.SortGroupClause, ptr %63, i32 0, i32 3
  %65 = load i32, ptr %64, align 4
  %66 = icmp eq i32 %62, %65
  br i1 %66, label %74, label %67

67:                                               ; preds = %61
  %68 = load i32, ptr %6, align 4
  %69 = load ptr, ptr %12, align 8
  %70 = getelementptr inbounds nuw %struct.SortGroupClause, ptr %69, i32 0, i32 3
  %71 = load i32, ptr %70, align 4
  %72 = call i32 @get_commutator(i32 noundef %71)
  %73 = icmp eq i32 %68, %72
  br i1 %73, label %74, label %75

74:                                               ; preds = %67, %61, %58
  store i1 true, ptr %4, align 1
  store i32 1, ptr %10, align 4
  br label %76

75:                                               ; preds = %67, %50
  store i32 0, ptr %10, align 4
  br label %76

76:                                               ; preds = %75, %74
  call void @llvm.lifetime.end.p0(i64 8, ptr %12) #8
  %77 = load i32, ptr %10, align 4
  switch i32 %77, label %83 [
    i32 0, label %78
  ]

78:                                               ; preds = %76
  br label %79

79:                                               ; preds = %78
  %80 = getelementptr inbounds nuw %struct.ForEachState, ptr %11, i32 0, i32 1
  %81 = load i32, ptr %80, align 8
  %82 = add i32 %81, 1
  store i32 %82, ptr %80, align 8
  br label %24, !llvm.loop !37

83:                                               ; preds = %76, %49
  call void @llvm.lifetime.end.p0(i64 16, ptr %11) #8
  %84 = load i32, ptr %10, align 4
  switch i32 %84, label %86 [
    i32 2, label %85
  ]

85:                                               ; preds = %83
  store i1 false, ptr %4, align 1
  store i32 1, ptr %10, align 4
  br label %86

86:                                               ; preds = %85, %83, %18
  call void @llvm.lifetime.end.p0(i64 8, ptr %9) #8
  call void @llvm.lifetime.end.p0(i64 4, ptr %8) #8
  %87 = load i1, ptr %4, align 1
  ret i1 %87
}

; Function Attrs: nounwind uwtable
define internal i32 @transformGroupClauseExpr(ptr noundef %0, ptr noundef %1, ptr noundef %2, ptr noundef %3, ptr noundef %4, ptr noundef %5, i32 noundef %6, i1 noundef zeroext %7, i1 noundef zeroext %8) #0 {
  %10 = alloca i32, align 4
  %11 = alloca ptr, align 8
  %12 = alloca ptr, align 8
  %13 = alloca ptr, align 8
  %14 = alloca ptr, align 8
  %15 = alloca ptr, align 8
  %16 = alloca ptr, align 8
  %17 = alloca i32, align 4
  %18 = alloca i8, align 1
  %19 = alloca i8, align 1
  %20 = alloca ptr, align 8
  %21 = alloca i8, align 1
  %22 = alloca ptr, align 8
  %23 = alloca i32, align 4
  %24 = alloca %struct.ForEachState, align 8
  %25 = alloca ptr, align 8
  %26 = alloca ptr, align 8
  store ptr %0, ptr %11, align 8
  store ptr %1, ptr %12, align 8
  store ptr %2, ptr %13, align 8
  store ptr %3, ptr %14, align 8
  store ptr %4, ptr %15, align 8
  store ptr %5, ptr %16, align 8
  store i32 %6, ptr %17, align 4
  %27 = zext i1 %7 to i8
  store i8 %27, ptr %18, align 1
  %28 = zext i1 %8 to i8
  store i8 %28, ptr %19, align 1
  call void @llvm.lifetime.start.p0(i64 8, ptr %20) #8
  call void @llvm.lifetime.start.p0(i64 1, ptr %21) #8
  store i8 0, ptr %21, align 1
  %29 = load i8, ptr %18, align 1, !range !6, !noundef !7
  %30 = trunc i8 %29 to i1
  br i1 %30, label %31, label %37

31:                                               ; preds = %9
  %32 = load ptr, ptr %13, align 8
  %33 = load ptr, ptr %14, align 8
  %34 = load ptr, ptr %15, align 8
  %35 = load i32, ptr %17, align 4
  %36 = call ptr @findTargetlistEntrySQL99(ptr noundef %32, ptr noundef %33, ptr noundef %34, i32 noundef %35)
  store ptr %36, ptr %20, align 8
  br label %43

37:                                               ; preds = %9
  %38 = load ptr, ptr %13, align 8
  %39 = load ptr, ptr %14, align 8
  %40 = load ptr, ptr %15, align 8
  %41 = load i32, ptr %17, align 4
  %42 = call ptr @findTargetlistEntrySQL92(ptr noundef %38, ptr noundef %39, ptr noundef %40, i32 noundef %41)
  store ptr %42, ptr %20, align 8
  br label %43

43:                                               ; preds = %37, %31
  %44 = load ptr, ptr %20, align 8
  %45 = getelementptr inbounds nuw %struct.TargetEntry, ptr %44, i32 0, i32 4
  %46 = load i32, ptr %45, align 8
  %47 = icmp ugt i32 %46, 0
  br i1 %47, label %48, label %135

48:                                               ; preds = %43
  call void @llvm.lifetime.start.p0(i64 8, ptr %22) #8
  %49 = load ptr, ptr %20, align 8
  %50 = getelementptr inbounds nuw %struct.TargetEntry, ptr %49, i32 0, i32 4
  %51 = load i32, ptr %50, align 8
  %52 = load ptr, ptr %12, align 8
  %53 = call zeroext i1 @bms_is_member(i32 noundef %51, ptr noundef %52)
  br i1 %53, label %54, label %55

54:                                               ; preds = %48
  store i32 0, ptr %10, align 4
  store i32 1, ptr %23, align 4
  br label %132

55:                                               ; preds = %48
  %56 = load ptr, ptr %20, align 8
  %57 = load ptr, ptr %11, align 8
  %58 = load ptr, ptr %57, align 8
  %59 = call zeroext i1 @targetIsInSortList(ptr noundef %56, i32 noundef 0, ptr noundef %58)
  %60 = zext i1 %59 to i8
  store i8 %60, ptr %21, align 1
  %61 = load i8, ptr %21, align 1, !range !6, !noundef !7
  %62 = trunc i8 %61 to i1
  br i1 %62, label %63, label %67

63:                                               ; preds = %55
  %64 = load ptr, ptr %20, align 8
  %65 = getelementptr inbounds nuw %struct.TargetEntry, ptr %64, i32 0, i32 4
  %66 = load i32, ptr %65, align 8
  store i32 %66, ptr %10, align 4
  store i32 1, ptr %23, align 4
  br label %132

67:                                               ; preds = %55
  call void @llvm.lifetime.start.p0(i64 16, ptr %24) #8
  %68 = getelementptr inbounds nuw %struct.ForEachState, ptr %24, i32 0, i32 0
  %69 = load ptr, ptr %16, align 8
  store ptr %69, ptr %68, align 8
  %70 = getelementptr inbounds nuw %struct.ForEachState, ptr %24, i32 0, i32 1
  store i32 0, ptr %70, align 8
  %71 = getelementptr i8, ptr %24, i64 12
  call void @llvm.memset.p0.i64(ptr align 4 %71, i8 0, i64 4, i1 false)
  br label %72

72:                                               ; preds = %126, %67
  %73 = getelementptr inbounds nuw %struct.ForEachState, ptr %24, i32 0, i32 0
  %74 = load ptr, ptr %73, align 8
  %75 = icmp ne ptr %74, null
  br i1 %75, label %76, label %93

76:                                               ; preds = %72
  %77 = getelementptr inbounds nuw %struct.ForEachState, ptr %24, i32 0, i32 1
  %78 = load i32, ptr %77, align 8
  %79 = getelementptr inbounds nuw %struct.ForEachState, ptr %24, i32 0, i32 0
  %80 = load ptr, ptr %79, align 8
  %81 = getelementptr inbounds nuw %struct.List, ptr %80, i32 0, i32 1
  %82 = load i32, ptr %81, align 4
  %83 = icmp slt i32 %78, %82
  br i1 %83, label %84, label %93

84:                                               ; preds = %76
  %85 = getelementptr inbounds nuw %struct.ForEachState, ptr %24, i32 0, i32 0
  %86 = load ptr, ptr %85, align 8
  %87 = getelementptr inbounds nuw %struct.List, ptr %86, i32 0, i32 3
  %88 = load ptr, ptr %87, align 8
  %89 = getelementptr inbounds nuw %struct.ForEachState, ptr %24, i32 0, i32 1
  %90 = load i32, ptr %89, align 8
  %91 = sext i32 %90 to i64
  %92 = getelementptr inbounds %union.ListCell, ptr %88, i64 %91
  store ptr %92, ptr %22, align 8
  br label %94

93:                                               ; preds = %76, %72
  store ptr null, ptr %22, align 8
  br label %94

94:                                               ; preds = %93, %84
  %95 = phi i32 [ 1, %84 ], [ 0, %93 ]
  %96 = icmp ne i32 %95, 0
  br i1 %96, label %98, label %97

97:                                               ; preds = %94
  store i32 2, ptr %23, align 4
  br label %130

98:                                               ; preds = %94
  call void @llvm.lifetime.start.p0(i64 8, ptr %25) #8
  %99 = load ptr, ptr %22, align 8
  %100 = load ptr, ptr %99, align 8
  store ptr %100, ptr %25, align 8
  %101 = load ptr, ptr %25, align 8
  %102 = getelementptr inbounds nuw %struct.SortGroupClause, ptr %101, i32 0, i32 1
  %103 = load i32, ptr %102, align 4
  %104 = load ptr, ptr %20, align 8
  %105 = getelementptr inbounds nuw %struct.TargetEntry, ptr %104, i32 0, i32 4
  %106 = load i32, ptr %105, align 8
  %107 = icmp eq i32 %103, %106
  br i1 %107, label %108, label %122

108:                                              ; preds = %98
  call void @llvm.lifetime.start.p0(i64 8, ptr %26) #8
  %109 = load ptr, ptr %25, align 8
  %110 = call ptr @copyObjectImpl(ptr noundef %109)
  store ptr %110, ptr %26, align 8
  %111 = load i8, ptr %19, align 1, !range !6, !noundef !7
  %112 = trunc i8 %111 to i1
  br i1 %112, label %116, label %113

113:                                              ; preds = %108
  %114 = load ptr, ptr %26, align 8
  %115 = getelementptr inbounds nuw %struct.SortGroupClause, ptr %114, i32 0, i32 5
  store i8 0, ptr %115, align 1
  br label %116

116:                                              ; preds = %113, %108
  %117 = load ptr, ptr %11, align 8
  %118 = load ptr, ptr %117, align 8
  %119 = load ptr, ptr %26, align 8
  %120 = call ptr @lappend(ptr noundef %118, ptr noundef %119)
  %121 = load ptr, ptr %11, align 8
  store ptr %120, ptr %121, align 8
  store i8 1, ptr %21, align 1
  store i32 2, ptr %23, align 4
  call void @llvm.lifetime.end.p0(i64 8, ptr %26) #8
  br label %123

122:                                              ; preds = %98
  store i32 0, ptr %23, align 4
  br label %123

123:                                              ; preds = %122, %116
  call void @llvm.lifetime.end.p0(i64 8, ptr %25) #8
  %124 = load i32, ptr %23, align 4
  switch i32 %124, label %130 [
    i32 0, label %125
  ]

125:                                              ; preds = %123
  br label %126

126:                                              ; preds = %125
  %127 = getelementptr inbounds nuw %struct.ForEachState, ptr %24, i32 0, i32 1
  %128 = load i32, ptr %127, align 8
  %129 = add i32 %128, 1
  store i32 %129, ptr %127, align 8
  br label %72, !llvm.loop !22

130:                                              ; preds = %123, %97
  call void @llvm.lifetime.end.p0(i64 16, ptr %24) #8
  br label %131

131:                                              ; preds = %130
  store i32 0, ptr %23, align 4
  br label %132

132:                                              ; preds = %131, %63, %54
  call void @llvm.lifetime.end.p0(i64 8, ptr %22) #8
  %133 = load i32, ptr %23, align 4
  switch i32 %133, label %153 [
    i32 0, label %134
  ]

134:                                              ; preds = %132
  br label %135

135:                                              ; preds = %134, %43
  %136 = load i8, ptr %21, align 1, !range !6, !noundef !7
  %137 = trunc i8 %136 to i1
  br i1 %137, label %149, label %138

138:                                              ; preds = %135
  %139 = load ptr, ptr %13, align 8
  %140 = load ptr, ptr %20, align 8
  %141 = load ptr, ptr %11, align 8
  %142 = load ptr, ptr %141, align 8
  %143 = load ptr, ptr %15, align 8
  %144 = load ptr, ptr %143, align 8
  %145 = load ptr, ptr %14, align 8
  %146 = call i32 @exprLocation(ptr noundef %145)
  %147 = call ptr @addTargetToGroupList(ptr noundef %139, ptr noundef %140, ptr noundef %142, ptr noundef %144, i32 noundef %146)
  %148 = load ptr, ptr %11, align 8
  store ptr %147, ptr %148, align 8
  br label %149

149:                                              ; preds = %138, %135
  %150 = load ptr, ptr %20, align 8
  %151 = getelementptr inbounds nuw %struct.TargetEntry, ptr %150, i32 0, i32 4
  %152 = load i32, ptr %151, align 8
  store i32 %152, ptr %10, align 4
  store i32 1, ptr %23, align 4
  br label %153

153:                                              ; preds = %149, %132
  call void @llvm.lifetime.end.p0(i64 1, ptr %21) #8
  call void @llvm.lifetime.end.p0(i64 8, ptr %20) #8
  %154 = load i32, ptr %10, align 4
  ret i32 %154
}