; Function Attrs: nounwind uwtable
define internal fastcc i32 @transformGroupClauseExpr(ptr noundef nonnull captures(none) %0, ptr noundef %1, ptr noundef %2, ptr noundef %3, ptr noundef captures(none) %4, ptr noundef readonly captures(address_is_null) %5, i32 noundef %6, i1 noundef zeroext %7, i1 noundef zeroext %8) unnamed_addr #0 {
  br i1 %7, label %10, label %12

10:                                               ; preds = %9
  %11 = tail call fastcc ptr @findTargetlistEntrySQL99(ptr noundef %2, ptr noundef %3, ptr noundef %4, i32 noundef %6)
  br label %14

12:                                               ; preds = %9
  %13 = tail call fastcc ptr @findTargetlistEntrySQL92(ptr noundef %2, ptr noundef %3, ptr noundef %4, i32 noundef %6)
  br label %14

14:                                               ; preds = %12, %10
  %.041 = phi ptr [ %11, %10 ], [ %13, %12 ]
  %15 = getelementptr inbounds nuw i8, ptr %.041, i64 32
  %16 = load i32, ptr %15, align 8
  %.not = icmp eq i32 %16, 0
  br i1 %.not, label %..thread62_crit_edge, label %17

..thread62_crit_edge:                             ; preds = %14
  %.pre = load ptr, ptr %0, align 8
  br label %.thread62

17:                                               ; preds = %14
  %18 = tail call zeroext i1 @bms_is_member(i32 noundef %16, ptr noundef %1) #9
  br i1 %18, label %.loopexit, label %19

19:                                               ; preds = %17
  %20 = load ptr, ptr %0, align 8
  %21 = load i32, ptr %15, align 8
  %22 = icmp eq i32 %21, 0
  %.not.i = icmp eq ptr %20, null
  %or.cond = select i1 %22, i1 true, i1 %.not.i
  br i1 %or.cond, label %targetIsInSortList.exit, label %.lr.ph.i

.lr.ph.i:                                         ; preds = %19
  %23 = getelementptr inbounds nuw i8, ptr %20, i64 4
  %24 = load i32, ptr %23, align 4
  %25 = icmp sgt i32 %24, 0
  br i1 %25, label %.critedge.us.lr.ph.i, label %targetIsInSortList.exit

.critedge.us.lr.ph.i:                             ; preds = %.lr.ph.i
  %26 = getelementptr inbounds nuw i8, ptr %20, i64 16
  %27 = load ptr, ptr %26, align 8
  %wide.trip.count.i = zext nneg i32 %24 to i64
  br label %.critedge.us.i

28:                                               ; preds = %.critedge.us.i
  %indvars.iv.next62.i = add nuw nsw i64 %indvars.iv61.i, 1
  %exitcond.not.i = icmp eq i64 %indvars.iv.next62.i, %wide.trip.count.i
  br i1 %exitcond.not.i, label %targetIsInSortList.exit, label %.critedge.us.i

.critedge.us.i:                                   ; preds = %28, %.critedge.us.lr.ph.i
  %indvars.iv61.i = phi i64 [ 0, %.critedge.us.lr.ph.i ], [ %indvars.iv.next62.i, %28 ]
  %29 = getelementptr inbounds nuw %union.ListCell, ptr %27, i64 %indvars.iv61.i
  %30 = load ptr, ptr %29, align 8
  %31 = getelementptr inbounds nuw i8, ptr %30, i64 4
  %32 = load i32, ptr %31, align 4
  %33 = icmp eq i32 %32, %21
  br i1 %33, label %.loopexit, label %28

targetIsInSortList.exit:                          ; preds = %28, %19, %.lr.ph.i
  %.not49 = icmp eq ptr %5, null
  br i1 %.not49, label %.thread62, label %.lr.ph

.lr.ph:                                           ; preds = %targetIsInSortList.exit
  %34 = getelementptr inbounds nuw i8, ptr %5, i64 4
  %35 = load i32, ptr %34, align 4
  %36 = icmp sgt i32 %35, 0
  br i1 %36, label %.lr.ph69, label %.thread62

.lr.ph69:                                         ; preds = %.lr.ph
  %37 = getelementptr inbounds nuw i8, ptr %5, i64 16
  %38 = load ptr, ptr %37, align 8
  %wide.trip.count = zext nneg i32 %35 to i64
  br label %40

39:                                               ; preds = %40
  %indvars.iv.next = add nuw nsw i64 %indvars.iv, 1
  %exitcond.not = icmp eq i64 %indvars.iv.next, %wide.trip.count
  br i1 %exitcond.not, label %.thread62, label %40

40:                                               ; preds = %.lr.ph69, %39
  %indvars.iv = phi i64 [ 0, %.lr.ph69 ], [ %indvars.iv.next, %39 ]
  %41 = getelementptr inbounds nuw %union.ListCell, ptr %38, i64 %indvars.iv
  %42 = load ptr, ptr %41, align 8
  %43 = getelementptr inbounds nuw i8, ptr %42, i64 4
  %44 = load i32, ptr %43, align 4
  %.not51 = icmp eq i32 %44, %21
  br i1 %.not51, label %.split, label %39

.split:                                           ; preds = %40
  %45 = tail call ptr @copyObjectImpl(ptr noundef nonnull %42) #9
  br i1 %8, label %.thread64, label %46

46:                                               ; preds = %.split
  %47 = getelementptr inbounds nuw i8, ptr %45, i64 17
  store i8 0, ptr %47, align 1
  br label %.thread64

.thread64:                                        ; preds = %46, %.split
  %48 = load ptr, ptr %0, align 8
  %49 = tail call ptr @lappend(ptr noundef %48, ptr noundef %45) #9
  br label %54

.thread62:                                        ; preds = %39, %..thread62_crit_edge, %targetIsInSortList.exit, %.lr.ph
  %50 = phi ptr [ %.pre, %..thread62_crit_edge ], [ %20, %targetIsInSortList.exit ], [ %20, %.lr.ph ], [ %20, %39 ]
  %51 = load ptr, ptr %4, align 8
  %52 = tail call i32 @exprLocation(ptr noundef %3) #9
  %53 = tail call fastcc ptr @addTargetToGroupList(ptr noundef %2, ptr noundef %.041, ptr noundef %50, ptr noundef %51, i32 noundef %52)
  br label %54

54:                                               ; preds = %.thread64, %.thread62
  %storemerge = phi ptr [ %49, %.thread64 ], [ %53, %.thread62 ]
  store ptr %storemerge, ptr %0, align 8
  %55 = load i32, ptr %15, align 8
  br label %.loopexit

.loopexit:                                        ; preds = %.critedge.us.i, %17, %54
  %.1 = phi i32 [ %55, %54 ], [ 0, %17 ], [ %21, %.critedge.us.i ]
  ret i32 %.1
}